Certificate:
    Data:
        Version: 3 (0x2)
        Serial Number:
            91:8a:cf:ca:85:00:00:00
        Signature Algorithm: sha1WithRSAEncryption
        Issuer: C=US, ST=North Carolina, L=Raleigh, O=Red Hat, Inc., OU=Red Hat Network, CN=Entitlement Master CA/emailAddress=ca-support@redhat.com
        Validity
            Not Before: Mar 18 11:24:54 2010 GMT
            Not After : Mar 13 11:24:54 2030 GMT
        Subject: C=US, ST=North Carolina, O=Red Hat, Inc., OU=Red Hat Network, CN=Red Hat Entitlement Operations Authority/emailAddress=ca-support@redhat.com
        Subject Public Key Info:
            Public Key Algorithm: rsaEncryption
            RSA Public Key: (4096 bit)
                Modulus (4096 bit):
                    00:bb:26:8a:88:43:9c:db:c8:a4:13:19:54:94:79:
                    a5:b3:fa:1a:b1:39:07:87:68:52:6b:d3:79:1e:17:
                    27:90:ba:ea:eb:c5:4f:0b:86:4d:58:a0:35:70:0b:
                    fb:45:16:7f:da:f6:03:0c:4a:10:f0:b2:eb:98:7b:
                    7c:b6:f2:2b:85:bb:ff:11:19:3d:5b:1a:99:06:03:
                    1e:9c:81:c2:59:0f:90:9d:d6:84:79:de:a9:05:82:
                    f1:b2:a4:bf:c2:2a:bb:4f:15:fb:ce:9b:88:20:c3:
                    02:1e:ae:3f:44:a2:03:3e:da:34:66:8b:12:73:9e:
                    e4:bf:56:35:fb:18:c8:dc:2b:1b:ed:80:7e:22:f2:
                    ff:52:d4:b6:69:a0:e5:d7:3a:2e:7e:d1:fa:eb:f4:
                    3d:92:79:27:68:94:6e:24:fa:94:cc:f7:bf:bd:f3:
                    03:1b:84:8e:20:cd:ba:b6:73:c7:31:d2:48:46:33:
                    c3:45:b5:78:ee:b3:33:81:76:ea:07:0e:b8:7d:81:
                    1d:e9:8f:32:31:e2:f9:cd:4e:9e:17:9a:69:f0:c4:
                    1d:02:53:36:01:02:cf:95:de:ed:61:9d:67:03:b2:
                    9f:d6:bc:1a:d3:2f:9b:43:c0:84:65:72:a7:b4:40:
                    5b:1c:5f:a1:4d:41:ef:de:1c:05:be:ba:20:a2:a3:
                    96:22:50:e4:32:a8:ab:2c:43:f6:a2:5b:30:5f:14:
                    e0:a7:75:64:85:41:d0:8c:b6:58:46:9a:a8:21:4c:
                    22:2d:f1:b6:55:95:50:d9:2e:e7:1d:b5:7b:03:26:
                    26:fc:23:9d:66:40:b5:47:8a:41:41:70:21:7a:92:
                    8e:e3:a8:64:3b:bc:d0:7e:8d:41:bf:b8:76:74:52:
                    8d:69:71:fe:6e:c7:3e:4e:f9:9b:4c:c4:ae:c8:69:
                    07:61:d2:29:49:eb:b3:8c:11:8b:b1:ac:58:30:dc:
                    a8:1b:ac:ed:e2:cc:c1:46:4f:bc:33:55:70:b4:2e:
                    ff:66:38:0d:41:cd:6c:96:e7:ef:e0:f0:12:a8:b9:
                    0f:48:5e:0b:e7:72:63:c8:92:e3:98:29:23:fc:a1:
                    56:fa:bf:19:f2:8b:f9:da:a3:68:d6:84:e0:2a:2b:
                    24:90:39:a8:9f:5f:df:cd:ce:97:f6:ae:6f:e6:89:
                    78:16:a1:08:13:6e:55:ad:9d:68:0f:41:a3:70:40:
                    76:72:fb:2a:42:0b:3c:5c:82:70:48:50:21:39:ee:
                    ef:44:27:f6:c4:25:c1:87:11:a1:81:76:2d:60:26:
                    f4:3b:4b:ac:14:f4:63:4c:3b:c1:01:e1:f2:f3:61:
                    c0:44:3b:93:91:bc:ed:6a:70:cd:c0:bc:cb:a7:8f:
                    47:4b:c5
                Exponent: 65537 (0x10001)
        X509v3 extensions:
            X509v3 Subject Key Identifier: 
                C4:49:78:56:45:9D:1E:2C:61:60:C3:66:4B:58:05:37:2F:03:22:7B
            X509v3 Authority Key Identifier: 
                keyid:88:4B:A6:45:C4:46:EC:8F:D6:CF:A6:F6:1A:CF:26:3C:90:CC:7F:17
                DirName:/C=US/ST=North Carolina/L=Raleigh/O=Red Hat, Inc./OU=Red Hat Network/CN=Entitlement Master CA/emailAddress=ca-support@redhat.com
                serial:E6:FE:42:28:25:C9:E6:5E

            X509v3 Basic Constraints: 
                CA:TRUE
            X509v3 Key Usage: 
                Certificate Sign, CRL Sign
            Netscape Cert Type: 
                SSL CA, S/MIME CA
            X509v3 Subject Alternative Name: 
                email:ca-support@redhat.com
            X509v3 Issuer Alternative Name: 
                email:ca-support@redhat.com
    Signature Algorithm: sha1WithRSAEncryption
        5b:4d:2c:fe:50:85:cf:01:52:13:d1:95:4b:d5:f9:42:1d:1d:
        75:dd:a8:f6:8f:75:01:66:46:a8:0e:44:b1:b4:47:da:d6:7a:
        b2:b2:63:74:96:5a:6a:87:83:55:04:bd:da:9c:41:58:c6:89:
        0b:85:0d:8f:07:c9:a6:b8:3e:44:b9:66:8d:c6:75:d3:73:84:
        ab:e5:db:0e:72:39:05:89:4d:7d:ee:5c:9b:68:92:bb:c3:83:
        b3:43:64:20:fd:7f:ed:e3:e4:7b:f1:c7:cc:64:af:ea:1e:98:
        ee:c9:3d:cd:c8:71:ef:0a:e8:3f:5b:39:2f:53:4f:69:46:bd:
        9a:54:72:3e:7e:7e:bc:bb:5f:13:47:33:c9:34:ab:de:81:1e:
        18:78:0d:ef:b3:24:16:06:01:1c:f2:c5:3b:2a:b0:2f:8a:41:
        49:de:60:93:a4:09:3e:e9:24:60:6c:61:4b:c9:91:3a:df:b4:
        2b:cf:2d:83:0c:1c:34:57:4d:b4:76:44:e4:0b:a6:27:12:c6:
        60:1f:06:56:56:62:ed:0a:02:e5:9e:29:b1:e9:24:5f:b7:ee:
        b3:ad:75:47:59:9c:68:77:51:93:fd:a7:fb:be:2c:e9:9a:1a:
        d7:b7:f3:6e:e5:27:bb:76:93:a1:3d:ac:a8:37:06:02:14:d9:
        9f:65:e2:f8:5b:f7:e8:48:a3:5f:6a:2c:d9:71:cf:ad:88:d0:
        01:46:d4:fe:b6:99:5f:9e:2b:ff:ca:3a:fb:b0:10:2c:14:f8:
        49:a9:00:7c:09:fb:10:f0:15:6f:2a:41:ed:8b:1c:a0:ca:8f:
        84:3b:e3:44:a2:d6:46:c3:77:27:fb:fe:ec:a2:8f:41:d5:b5:
        97:93:73:c5:4b:01:2b:f8:ac:08:34:00:85:1a:fd:b3:70:62:
        c8:a1:e3:f8:88:ae:83:1d:92:26:58:45:78:b6:03:2b:43:25:
        da:b4:4c:8f:87:66:b1:3d:65:37:4a:36:3f:7e:bd:54:6f:98:
        04:b7:e5:a9:0a:dc:98:20:de:0e:6c:16:8d:78:bd:cd:3d:f4:
        e3:ef:df:d5:15:9d:b6:3e:15:08:9e:61:98:fd:52:bf:ca:6b:
        e5:fd:d9:16:c9:68:bc:cc:3f:00:ab:9e:68:7d:9d:f7:16:f4:
        38:e9:d7:0b:a7:5a:55:29:60:29:21:5a:8e:db:bb:a1:2f:a6:
        31:5c:31:62:ea:7e:d1:5c:00:84:21:5c:fa:26:a0:e1:e5:f1:
        a6:38:7d:45:fa:f7:ee:99:92:b3:5b:bf:0b:95:50:f6:41:8d:
        79:ae:60:a1:d2:2f:7e:01:40:a2:52:c3:72:61:d2:5b:49:90:
        cf:88:53:c1:c2:5c:14:a1
-----BEGIN CERTIFICATE-----
MIIHZTCCBU2gAwIBAgIJAJGKz8qFAAAAMA0GCSqGSIb3DQEBBQUAMIGwMQswCQYD
VQQGEwJVUzEXMBUGA1UECAwOTm9ydGggQ2Fyb2xpbmExEDAOBgNVBAcMB1JhbGVp
Z2gxFjAUBgNVBAoMDVJlZCBIYXQsIEluYy4xGDAWBgNVBAsMD1JlZCBIYXQgTmV0
d29yazEeMBwGA1UEAwwVRW50aXRsZW1lbnQgTWFzdGVyIENBMSQwIgYJKoZIhvcN
AQkBFhVjYS1zdXBwb3J0QHJlZGhhdC5jb20wHhcNMTAwMzE4MTEyNDU0WhcNMzAw
MzEzMTEyNDU0WjCBsTELMAkGA1UEBhMCVVMxFzAVBgNVBAgMDk5vcnRoIENhcm9s
aW5hMRYwFAYDVQQKDA1SZWQgSGF0LCBJbmMuMRgwFgYDVQQLDA9SZWQgSGF0IE5l
dHdvcmsxMTAvBgNVBAMMKFJlZCBIYXQgRW50aXRsZW1lbnQgT3BlcmF0aW9ucyBB
dXRob3JpdHkxJDAiBgkqhkiG9w0BCQEWFWNhLXN1cHBvcnRAcmVkaGF0LmNvbTCC
AiIwDQYJKoZIhvcNAQEBBQADggIPADCCAgoCggIBALsmiohDnNvIpBMZVJR5pbP6
GrE5B4doUmvTeR4XJ5C66uvFTwuGTVigNXAL+0UWf9r2AwxKEPCy65h7fLbyK4W7
/xEZPVsamQYDHpyBwlkPkJ3WhHneqQWC8bKkv8Iqu08V+86biCDDAh6uP0SiAz7a
NGaLEnOe5L9WNfsYyNwrG+2AfiLy/1LUtmmg5dc6Ln7R+uv0PZJ5J2iUbiT6lMz3
v73zAxuEjiDNurZzxzHSSEYzw0W1eO6zM4F26gcOuH2BHemPMjHi+c1OnheaafDE
HQJTNgECz5Xe7WGdZwOyn9a8GtMvm0PAhGVyp7RAWxxfoU1B794cBb66IKKjliJQ
5DKoqyxD9qJbMF8U4Kd1ZIVB0Iy2WEaaqCFMIi3xtlWVUNku5x21ewMmJvwjnWZA
tUeKQUFwIXqSjuOoZDu80H6NQb+4dnRSjWlx/m7HPk75m0zErshpB2HSKUnrs4wR
i7GsWDDcqBus7eLMwUZPvDNVcLQu/2Y4DUHNbJbn7+DwEqi5D0heC+dyY8iS45gp
I/yhVvq/GfKL+dqjaNaE4CorJJA5qJ9f383Ol/aub+aJeBahCBNuVa2daA9Bo3BA
dnL7KkILPFyCcEhQITnu70Qn9sQlwYcRoYF2LWAm9DtLrBT0Y0w7wQHh8vNhwEQ7
k5G87WpwzcC8y6ePR0vFAgMBAAGjggF9MIIBeTAdBgNVHQ4EFgQUxEl4VkWdHixh
YMNmS1gFNy8DInswgeUGA1UdIwSB3TCB2oAUiEumRcRG7I/Wz6b2Gs8mPJDMfxeh
gbakgbMwgbAxCzAJBgNVBAYTAlVTMRcwFQYDVQQIDA5Ob3J0aCBDYXJvbGluYTEQ
MA4GA1UEBwwHUmFsZWlnaDEWMBQGA1UECgwNUmVkIEhhdCwgSW5jLjEYMBYGA1UE
CwwPUmVkIEhhdCBOZXR3b3JrMR4wHAYDVQQDDBVFbnRpdGxlbWVudCBNYXN0ZXIg
Q0ExJDAiBgkqhkiG9w0BCQEWFWNhLXN1cHBvcnRAcmVkaGF0LmNvbYIJAOb+Qigl
yeZeMAwGA1UdEwQFMAMBAf8wCwYDVR0PBAQDAgEGMBEGCWCGSAGG+EIBAQQEAwIB
BjAgBgNVHREEGTAXgRVjYS1zdXBwb3J0QHJlZGhhdC5jb20wIAYDVR0SBBkwF4EV
Y2Etc3VwcG9ydEByZWRoYXQuY29tMA0GCSqGSIb3DQEBBQUAA4ICAQBbTSz+UIXP
AVIT0ZVL1flCHR113aj2j3UBZkaoDkSxtEfa1nqysmN0llpqh4NVBL3anEFYxokL
hQ2PB8mmuD5EuWaNxnXTc4Sr5dsOcjkFiU197lybaJK7w4OzQ2Qg/X/t4+R78cfM
ZK/qHpjuyT3NyHHvCug/WzkvU09pRr2aVHI+fn68u18TRzPJNKvegR4YeA3vsyQW
BgEc8sU7KrAvikFJ3mCTpAk+6SRgbGFLyZE637Qrzy2DDBw0V020dkTkC6YnEsZg
HwZWVmLtCgLlnimx6SRft+6zrXVHWZxod1GT/af7vizpmhrXt/Nu5Se7dpOhPayo
NwYCFNmfZeL4W/foSKNfaizZcc+tiNABRtT+tplfniv/yjr7sBAsFPhJqQB8CfsQ
8BVvKkHtixygyo+EO+NEotZGw3cn+/7soo9B1bWXk3PFSwEr+KwINACFGv2zcGLI
oeP4iK6DHZImWEV4tgMrQyXatEyPh2axPWU3SjY/fr1Ub5gEt+WpCtyYIN4ObBaN
eL3NPfTj79/VFZ22PhUInmGY/VK/ymvl/dkWyWi8zD8Aq55ofZ33FvQ46dcLp1pV
KWApIVqO27uhL6YxXDFi6n7RXACEIVz6JqDh5fGmOH1F+vfumZKzW78LlVD2QY15
rmCh0i9+AUCiUsNyYdJbSZDPiFPBwlwUoQ==
-----END CERTIFICATE-----
-----BEGIN CERTIFICATE-----
MIIHZDCCBUygAwIBAgIJAOb+QiglyeZeMA0GCSqGSIb3DQEBBQUAMIGwMQswCQYD
VQQGEwJVUzEXMBUGA1UECAwOTm9ydGggQ2Fyb2xpbmExEDAOBgNVBAcMB1JhbGVp
Z2gxFjAUBgNVBAoMDVJlZCBIYXQsIEluYy4xGDAWBgNVBAsMD1JlZCBIYXQgTmV0
d29yazEeMBwGA1UEAwwVRW50aXRsZW1lbnQgTWFzdGVyIENBMSQwIgYJKoZIhvcN
AQkBFhVjYS1zdXBwb3J0QHJlZGhhdC5jb20wHhcNMTAwMzE3MTkwMDQ0WhcNMzAw
MzEyMTkwMDQ0WjCBsDELMAkGA1UEBhMCVVMxFzAVBgNVBAgMDk5vcnRoIENhcm9s
aW5hMRAwDgYDVQQHDAdSYWxlaWdoMRYwFAYDVQQKDA1SZWQgSGF0LCBJbmMuMRgw
FgYDVQQLDA9SZWQgSGF0IE5ldHdvcmsxHjAcBgNVBAMMFUVudGl0bGVtZW50IE1h
c3RlciBDQTEkMCIGCSqGSIb3DQEJARYVY2Etc3VwcG9ydEByZWRoYXQuY29tMIIC
IjANBgkqhkiG9w0BAQEFAAOCAg8AMIICCgKCAgEA2Z+mW7OYcBcGxWS+RSKG2GJ2
csMXiGGfEp36vKVsIvypmNS60SkicKENMYREalbdSjrgfXxPJygZWsVWJ5lHPfBV
o3WkFrFHTIXd/R6LxnaHD1m8Cx3GwEeuSlE/ASjc1ePtMnsHH7xqZ9wdl85b1C8O
scgO7fwuM192kvv/veI/BogIqUQugtG6szXpV8dp4ml029LXFoNIy2lfFoa2wKYw
MiUHwtYgAz7TDY63e8qGhd5PoqTv9XKQogo2ze9sF9y/npZjliNy5qf6bFE+24oW
E8pGsp3zqz8h5mvw4v+tfIx5uj7dwjDteFrrWD1tcT7UmNrBDWXjKMG81zchq3h4
etgF0iwMHEuYuixiJWNzKrLNVQbDmcLGNOvyJfq60tM8AUAd72OUQzivBegnWMit
CLcT5viCT1AIkYXt7l5zc/duQWLeAAR2FmpZFylSukknzzeiZpPclRziYTboDYHq
revM97eER1xsfoSYp4mJkBHfdlqMnf3CWPcNgru8NbEPeUGMI6+C0YvknPlqDDtU
ojfl4qNdf6nWL+YNXpR1YGKgWGWgTU6uaG8Sc6qGfAoLHh6oGwbuz102j84OgjAJ
DGv/S86svmZWSqZ5UoJOIEqFYrONcOSgztZ5tU+gP4fwRIkTRbTEWSgudVREOXhs
bfN1YGP7HYvS0OiBKZUCAwEAAaOCAX0wggF5MB0GA1UdDgQWBBSIS6ZFxEbsj9bP
pvYazyY8kMx/FzCB5QYDVR0jBIHdMIHagBSIS6ZFxEbsj9bPpvYazyY8kMx/F6GB
tqSBszCBsDELMAkGA1UEBhMCVVMxFzAVBgNVBAgMDk5vcnRoIENhcm9saW5hMRAw
DgYDVQQHDAdSYWxlaWdoMRYwFAYDVQQKDA1SZWQgSGF0LCBJbmMuMRgwFgYDVQQL
DA9SZWQgSGF0IE5ldHdvcmsxHjAcBgNVBAMMFUVudGl0bGVtZW50IE1hc3RlciBD
QTEkMCIGCSqGSIb3DQEJARYVY2Etc3VwcG9ydEByZWRoYXQuY29tggkA5v5CKCXJ
5l4wDAYDVR0TBAUwAwEB/zALBgNVHQ8EBAMCAQYwEQYJYIZIAYb4QgEBBAQDAgEG
MCAGA1UdEQQZMBeBFWNhLXN1cHBvcnRAcmVkaGF0LmNvbTAgBgNVHRIEGTAXgRVj
YS1zdXBwb3J0QHJlZGhhdC5jb20wDQYJKoZIhvcNAQEFBQADggIBAJ1hEdNBDTRr
6kI6W6stoogSUwjuiWPDY8DptwGhdpyIfbCoxvBR7F52DlwyXOpCunogfKMRklnE
gH1Wt66RYkgNuJcenKHAhR5xgSLoPCOVF9rDjMunyyBuxjIbctM21R7BswVpsEIE
OpV5nlJ6wkHsrn0/E+Zk5UJdCzM+Fp4hqHtEn/c97nvRspQcpWeDg6oUvaJSZTGM
8yFpzR90X8ZO4rOgpoERukvYutUfJUzZuDyS3LLc6ysamemH93rZXr52zc4B+C9G
Em8zemDgIPaH42ce3C3TdVysiq/yk+ir7pxW8toeavFv75l1UojFSjND+Q2AlNQn
pYkmRznbD5TZ3yDuPFQG2xYKnMPACepGgKZPyErtOIljQKCdgcvb9EqNdZaJFz1+
/iWKYBL077Y0CKwb+HGIDeYdzrYxbEd95YuVU0aStnf2Yii2tLcpQtK9cC2+DXjL
Yf3kQs4xzH4ZejhG9wzv8PGXOS8wHYnfVNA3+fclDEQ1mEBKWHHmenGI6QKZUP8f
g0SQ3PNRnSZu8R+rhABOEuVFIBRlaYijg2Pxe0NgL9FlHsNyRfo6EUrB2QFRKACW
3Mo6pZyDjQt7O8J7l9B9IIURoJ1niwygf7VSJTMl2w3fFleNJlZTGgdXw0V+5g+9
Kg6Ay0rrsi4nw1JHue2GvdjdfVOaWSWC
-----END CERTIFICATE-----
